; Function Attrs: mustprogress uwtable
define dso_local void @_ZN3net16QuicCryptoStream20SendHandshakeMessageERKNS_22CryptoHandshakeMessageE(ptr noundef nonnull align 8 dereferenceable(1048) %this, ptr noundef nonnull align 8 dereferenceable(72) %message) local_unnamed_addr #0 align 2 {
entry:
  %agg.tmp = alloca %"class.base::BasicStringPiece", align 8
  %session_.i = getelementptr inbounds i8, ptr %this, i64 224
  %0 = load ptr, ptr %session_.i, align 8
  %connection_.i = getelementptr inbounds i8, ptr %0, i64 56
  %1 = load ptr, ptr %connection_.i, align 8
  tail call void @_ZN3net14QuicConnection24NeuterUnencryptedPacketsEv(ptr noundef nonnull align 8 dereferenceable(3372) %1)
  %2 = load ptr, ptr %session_.i, align 8
  %vtable = load ptr, ptr %2, align 8
  %vfn = getelementptr inbounds i8, ptr %vtable, i64 216
  %3 = load ptr, ptr %vfn, align 8
  tail call void %3(ptr noundef nonnull align 8 dereferenceable(2044) %2, ptr noundef nonnull align 8 dereferenceable(72) %message)
  %call4 = tail call noundef nonnull align 8 dereferenceable(25) ptr @_ZNK3net22CryptoHandshakeMessage13GetSerializedEv(ptr noundef nonnull align 8 dereferenceable(72) %message)
  %buffer_.i = getelementptr inbounds i8, ptr %call4, i64 8
  %4 = load ptr, ptr %buffer_.i, align 8
  %length_.i = getelementptr inbounds i8, ptr %call4, i64 16
  %5 = load i64, ptr %length_.i, align 8
  call void @_ZN4base16BasicStringPieceINSt7__cxx1112basic_stringIcSt11char_traitsIcESaIcEEEEC1EPKcm(ptr noundef nonnull align 8 dereferenceable(16) %agg.tmp, ptr noundef %4, i64 noundef %5)
  %6 = load ptr, ptr %agg.tmp, align 8
  %7 = getelementptr inbounds i8, ptr %agg.tmp, i64 8
  %8 = load i64, ptr %7, align 8
  call void @_ZN3net18ReliableQuicStream17WriteOrBufferDataEN4base16BasicStringPieceINSt7__cxx1112basic_stringIcSt11char_traitsIcESaIcEEEEEbPNS_24QuicAckListenerInterfaceE(ptr noundef nonnull align 8 dereferenceable(377) %this, ptr %6, i64 %8, i1 noundef zeroext false, ptr noundef null)
  ret void
}